target datalayout = "e-m:e-p270:32:32-p271:32:32-p272:64:64-i64:64-i128:128-f80:128-n8:16:32:64-S128"
target triple = "x86_64-pc-linux-gnu"

%"class.llvm::MachineOperand" = type { i32, %union.anon, ptr, %"union.llvm::MachineOperand::ContentsUnion" }
%union.anon = type { i32 }
%"union.llvm::MachineOperand::ContentsUnion" = type { %"class.llvm::ArrayRef" }
%"class.llvm::ArrayRef" = type { ptr, i64 }
%"class.llvm::MachineInstr" = type <{ %"class.llvm::ilist_node_with_parent", ptr, ptr, ptr, [3 x i8], %"class.llvm::ArrayRecycler<llvm::MachineOperand>::Capacity", i32, %"class.llvm::PointerSumType", %"class.llvm::DebugLoc", i32, i16, [2 x i8] }>
%"class.llvm::ilist_node_with_parent" = type { %"class.llvm::ilist_node" }
%"class.llvm::ilist_node" = type { %"class.llvm::ilist_node_impl" }
%"class.llvm::ilist_node_impl" = type { %"class.llvm::ilist_node_base" }
%"class.llvm::ilist_node_base" = type { %"class.llvm::ilist_detail::node_base_prevnext" }
%"class.llvm::ilist_detail::node_base_prevnext" = type { %"class.llvm::PointerIntPair", ptr }
%"class.llvm::PointerIntPair" = type { %"struct.llvm::detail::PunnedPointer" }
%"struct.llvm::detail::PunnedPointer" = type { [8 x i8] }
%"class.llvm::ArrayRecycler<llvm::MachineOperand>::Capacity" = type { i8 }
%"class.llvm::PointerSumType" = type { %"union.llvm::PointerSumType<llvm::MachineInstr::ExtraInfoInlineKinds, llvm::PointerSumTypeMember<0, llvm::MachineMemOperand *>, llvm::PointerSumTypeMember<1, llvm::MCSymbol *>, llvm::PointerSumTypeMember<2, llvm::MCSymbol *>, llvm::PointerSumTypeMember<3, llvm::MachineInstr::ExtraInfo *>>::StorageT" }
%"union.llvm::PointerSumType<llvm::MachineInstr::ExtraInfoInlineKinds, llvm::PointerSumTypeMember<0, llvm::MachineMemOperand *>, llvm::PointerSumTypeMember<1, llvm::MCSymbol *>, llvm::PointerSumTypeMember<2, llvm::MCSymbol *>, llvm::PointerSumTypeMember<3, llvm::MachineInstr::ExtraInfo *>>::StorageT" = type { i64 }
%"class.llvm::DebugLoc" = type { %"class.llvm::TypedTrackingMDRef" }
%"class.llvm::TypedTrackingMDRef" = type { %"class.llvm::TrackingMDRef" }
%"class.llvm::TrackingMDRef" = type { ptr }
%"class.llvm::MCInstrDesc" = type { i16, i16, i8, i8, i16, i8, i8, i16, i16, i64, i64 }

; Function Attrs: mustprogress nounwind uwtable
define linkonce_odr hidden noundef zeroext i1 @_ZNK4llvm12MachineInstr7getFlagENS0_6MIFlagE(ptr noundef nonnull align 8 dereferenceable(70) %0, i32 noundef %1) #1 comdat align 2 {
  %3 = alloca ptr, align 8
  %4 = alloca i32, align 4
  store ptr %0, ptr %3, align 8
  store i32 %1, ptr %4, align 4
  %5 = load ptr, ptr %3, align 8
  %6 = getelementptr inbounds nuw %"class.llvm::MachineInstr", ptr %5, i32 0, i32 6
  %7 = load i32, ptr %6, align 4
  %8 = and i32 %7, 16777215
  %9 = load i32, ptr %4, align 4
  %10 = and i32 %8, %9
  %11 = icmp ne i32 %10, 0
  ret i1 %11
}

; Function Attrs: mustprogress nounwind uwtable
define linkonce_odr hidden noundef zeroext i1 @_ZNK4llvm12MachineInstr17isBundledWithSuccEv(ptr noundef nonnull align 8 dereferenceable(70) %0) #1 comdat align 2 {
  %2 = alloca ptr, align 8
  store ptr %0, ptr %2, align 8
  %3 = load ptr, ptr %2, align 8
  %4 = call noundef zeroext i1 @_ZNK4llvm12MachineInstr7getFlagENS0_6MIFlagE(ptr noundef nonnull align 8 dereferenceable(70) %3, i32 noundef 8)
  ret i1 %4
}

; Function Attrs: mustprogress nounwind uwtable
define linkonce_odr hidden noundef i64 @_ZNK4llvm11MCInstrDesc8getFlagsEv(ptr noundef nonnull align 8 dereferenceable(32) %0) #1 comdat align 2 {
  %2 = alloca ptr, align 8
  store ptr %0, ptr %2, align 8
  %3 = load ptr, ptr %2, align 8
  %4 = getelementptr inbounds nuw %"class.llvm::MCInstrDesc", ptr %3, i32 0, i32 9
  %5 = load i64, ptr %4, align 8
  ret i64 %5
}

; Function Attrs: mustprogress nounwind uwtable
define linkonce_odr hidden noundef nonnull align 8 dereferenceable(32) ptr @_ZNK4llvm12MachineInstr7getDescEv(ptr noundef nonnull align 8 dereferenceable(70) %0) #1 comdat align 2 {
  %2 = alloca ptr, align 8
  store ptr %0, ptr %2, align 8
  %3 = load ptr, ptr %2, align 8
  %4 = getelementptr inbounds nuw %"class.llvm::MachineInstr", ptr %3, i32 0, i32 1
  %5 = load ptr, ptr %4, align 8
  ret ptr %5
}

; Function Attrs: mustprogress nounwind uwtable
define linkonce_odr hidden noundef zeroext i1 @_ZNK4llvm12MachineInstr17isBundledWithPredEv(ptr noundef nonnull align 8 dereferenceable(70) %0) #1 comdat align 2 {
  %2 = alloca ptr, align 8
  store ptr %0, ptr %2, align 8
  %3 = load ptr, ptr %2, align 8
  %4 = call noundef zeroext i1 @_ZNK4llvm12MachineInstr7getFlagENS0_6MIFlagE(ptr noundef nonnull align 8 dereferenceable(70) %3, i32 noundef 4)
  ret i1 %4
}

; Function Attrs: mustprogress nounwind uwtable
define linkonce_odr hidden noundef zeroext i1 @_ZNK4llvm12MachineInstr9isBundledEv(ptr noundef nonnull align 8 dereferenceable(70) %0) #1 comdat align 2 {
  %2 = alloca ptr, align 8
  store ptr %0, ptr %2, align 8
  %3 = load ptr, ptr %2, align 8
  %4 = call noundef zeroext i1 @_ZNK4llvm12MachineInstr17isBundledWithPredEv(ptr noundef nonnull align 8 dereferenceable(70) %3)
  br i1 %4, label %7, label %5

5:                                                ; preds = %1
  %6 = call noundef zeroext i1 @_ZNK4llvm12MachineInstr17isBundledWithSuccEv(ptr noundef nonnull align 8 dereferenceable(70) %3)
  br label %7

7:                                                ; preds = %5, %1
  %8 = phi i1 [ true, %1 ], [ %6, %5 ]
  ret i1 %8
}

; Function Attrs: mustprogress nounwind uwtable
define linkonce_odr hidden noundef zeroext i1 @_ZNK4llvm12MachineInstr11hasPropertyEjNS0_9QueryTypeE(ptr noundef nonnull align 8 dereferenceable(70) %0, i32 noundef %1, i32 noundef %2) #1 comdat align 2 {
  %4 = alloca i1, align 1
  %5 = alloca ptr, align 8
  %6 = alloca i32, align 4
  %7 = alloca i32, align 4
  store ptr %0, ptr %5, align 8
  store i32 %1, ptr %6, align 4
  store i32 %2, ptr %7, align 4
  %8 = load ptr, ptr %5, align 8
  %9 = load i32, ptr %7, align 4
  %10 = icmp eq i32 %9, 0
  br i1 %10, label %15, label %11

11:                                               ; preds = %3
  %12 = call noundef zeroext i1 @_ZNK4llvm12MachineInstr9isBundledEv(ptr noundef nonnull align 8 dereferenceable(70) %8)
  br i1 %12, label %13, label %15

13:                                               ; preds = %11
  %14 = call noundef zeroext i1 @_ZNK4llvm12MachineInstr17isBundledWithPredEv(ptr noundef nonnull align 8 dereferenceable(70) %8)
  br i1 %14, label %15, label %23

15:                                               ; preds = %13, %11, %3
  %16 = call noundef nonnull align 8 dereferenceable(32) ptr @_ZNK4llvm12MachineInstr7getDescEv(ptr noundef nonnull align 8 dereferenceable(70) %8)
  %17 = call noundef i64 @_ZNK4llvm11MCInstrDesc8getFlagsEv(ptr noundef nonnull align 8 dereferenceable(32) %16)
  %18 = load i32, ptr %6, align 4
  %19 = zext i32 %18 to i64
  %20 = shl i64 1, %19
  %21 = and i64 %17, %20
  %22 = icmp ne i64 %21, 0
  store i1 %22, ptr %4, align 1
  br label %29

23:                                               ; preds = %13
  %24 = load i32, ptr %6, align 4
  %25 = zext i32 %24 to i64
  %26 = shl i64 1, %25
  %27 = load i32, ptr %7, align 4
  %28 = call noundef zeroext i1 @_ZNK4llvm12MachineInstr19hasPropertyInBundleEmNS0_9QueryTypeE(ptr noundef nonnull align 8 dereferenceable(70) %8, i64 noundef %26, i32 noundef %27)
  store i1 %28, ptr %4, align 1
  br label %29

29:                                               ; preds = %23, %15
  %30 = load i1, ptr %4, align 1
  ret i1 %30
}

; Function Attrs: mustprogress nounwind uwtable
define linkonce_odr hidden noundef zeroext i1 @_ZNK4llvm12MachineInstr22hasExtraSrcRegAllocReqENS0_9QueryTypeE(ptr noundef nonnull align 8 dereferenceable(70) %0, i32 noundef %1) #1 comdat align 2 {
  %3 = alloca ptr, align 8
  %4 = alloca i32, align 4
  store ptr %0, ptr %3, align 8
  store i32 %1, ptr %4, align 4
  %5 = load ptr, ptr %3, align 8
  %6 = load i32, ptr %4, align 4
  %7 = call noundef zeroext i1 @_ZNK4llvm12MachineInstr11hasPropertyEjNS0_9QueryTypeE(ptr noundef nonnull align 8 dereferenceable(70) %5, i32 noundef 31, i32 noundef %6)
  ret i1 %7
}

; Function Attrs: mustprogress nounwind uwtable
define linkonce_odr hidden noundef zeroext i1 @_ZNK4llvm12MachineInstr22hasExtraDefRegAllocReqENS0_9QueryTypeE(ptr noundef nonnull align 8 dereferenceable(70) %0, i32 noundef %1) #1 comdat align 2 {
  %3 = alloca ptr, align 8
  %4 = alloca i32, align 4
  store ptr %0, ptr %3, align 8
  store i32 %1, ptr %4, align 4
  %5 = load ptr, ptr %3, align 8
  %6 = load i32, ptr %4, align 4
  %7 = call noundef zeroext i1 @_ZNK4llvm12MachineInstr11hasPropertyEjNS0_9QueryTypeE(ptr noundef nonnull align 8 dereferenceable(70) %5, i32 noundef 32, i32 noundef %6)
  ret i1 %7
}

; Function Attrs: mustprogress nounwind uwtable
define linkonce_odr hidden noundef zeroext i1 @_ZNK4llvm14MachineOperand5isDefEv(ptr noundef nonnull align 8 dereferenceable(32) %0) #1 comdat align 2 {
  %2 = alloca ptr, align 8
  store ptr %0, ptr %2, align 8
  %3 = load ptr, ptr %2, align 8
  %4 = load i32, ptr %3, align 8
  %5 = lshr i32 %4, 24
  %6 = and i32 %5, 1
  %7 = icmp ne i32 %6, 0
  ret i1 %7
}

; Function Attrs: mustprogress nounwind uwtable
define linkonce_odr hidden noundef ptr @_ZNK4llvm14MachineOperand9getParentEv(ptr noundef nonnull align 8 dereferenceable(32) %0) #1 comdat align 2 {
  %2 = alloca ptr, align 8
  store ptr %0, ptr %2, align 8
  %3 = load ptr, ptr %2, align 8
  %4 = getelementptr inbounds nuw %"class.llvm::MachineOperand", ptr %3, i32 0, i32 2
  %5 = load ptr, ptr %4, align 8
  ret ptr %5
}

; Function Attrs: mustprogress nounwind uwtable
define dso_local noundef zeroext i1 @_ZNK4llvm14MachineOperand11isRenamableEv(ptr noundef nonnull align 8 dereferenceable(32) %0) #1 align 2 {
  %2 = alloca i1, align 1
  %3 = alloca ptr, align 8
  %4 = alloca ptr, align 8
  store ptr %0, ptr %3, align 8
  %5 = load ptr, ptr %3, align 8
  %6 = load i32, ptr %5, align 8
  %7 = lshr i32 %6, 27
  %8 = and i32 %7, 1
  %9 = icmp ne i32 %8, 0
  br i1 %9, label %11, label %10

10:                                               ; preds = %1
  store i1 false, ptr %2, align 1
  br label %26

11:                                               ; preds = %1
  %12 = call noundef ptr @_ZNK4llvm14MachineOperand9getParentEv(ptr noundef nonnull align 8 dereferenceable(32) %5)
  store ptr %12, ptr %4, align 8
  %13 = load ptr, ptr %4, align 8
  %14 = icmp ne ptr %13, null
  br i1 %14, label %16, label %15

15:                                               ; preds = %11
  store i1 true, ptr %2, align 1
  br label %26

16:                                               ; preds = %11
  %17 = call noundef zeroext i1 @_ZNK4llvm14MachineOperand5isDefEv(ptr noundef nonnull align 8 dereferenceable(32) %5)
  br i1 %17, label %18, label %22

18:                                               ; preds = %16
  %19 = load ptr, ptr %4, align 8
  %20 = call noundef zeroext i1 @_ZNK4llvm12MachineInstr22hasExtraDefRegAllocReqENS0_9QueryTypeE(ptr noundef nonnull align 8 dereferenceable(70) %19, i32 noundef 0)
  %21 = xor i1 %20, true
  store i1 %21, ptr %2, align 1
  br label %26

22:                                               ; preds = %16
  %23 = load ptr, ptr %4, align 8
  %24 = call noundef zeroext i1 @_ZNK4llvm12MachineInstr22hasExtraSrcRegAllocReqENS0_9QueryTypeE(ptr noundef nonnull align 8 dereferenceable(70) %23, i32 noundef 0)
  %25 = xor i1 %24, true
  store i1 %25, ptr %2, align 1
  br label %26

26:                                               ; preds = %22, %18, %15, %10
  %27 = load i1, ptr %2, align 1
  ret i1 %27
}