; Function Attrs: mustprogress nofree norecurse nosync nounwind willreturn memory(read, inaccessiblemem: none) uwtable
define dso_local noundef zeroext i1 @_ZNK4llvm14MachineOperand11isRenamableEv(ptr noundef nonnull readonly align 8 captures(none) dereferenceable(32) %0) local_unnamed_addr #2 align 2 {
  %2 = load i32, ptr %0, align 8
  %3 = and i32 %2, 134217728
  %.not = icmp eq i32 %3, 0
  br i1 %.not, label %17, label %4

4:                                                ; preds = %1
  %5 = getelementptr inbounds nuw i8, ptr %0, i64 8
  %6 = load ptr, ptr %5, align 8
  %.not6 = icmp eq ptr %6, null
  br i1 %.not6, label %17, label %7

7:                                                ; preds = %4
  %8 = and i32 %2, 16777216
  %.not7 = icmp eq i32 %8, 0
  %9 = getelementptr inbounds nuw i8, ptr %6, i64 16
  %10 = load ptr, ptr %9, align 8
  %11 = getelementptr inbounds nuw i8, ptr %10, i64 16
  %12 = load i64, ptr %11, align 8
  br i1 %.not7, label %15, label %13

13:                                               ; preds = %7
  %14 = and i64 %12, 4294967296
  %.not9 = icmp eq i64 %14, 0
  br label %17

15:                                               ; preds = %7
  %16 = and i64 %12, 2147483648
  %.not8 = icmp eq i64 %16, 0
  br label %17

17:                                               ; preds = %4, %1, %15, %13
  %.0 = phi i1 [ %.not9, %13 ], [ %.not8, %15 ], [ false, %1 ], [ true, %4 ]
  ret i1 %.0
}